; Function Attrs: nounwind uwtable
define i32 @ffurl_read_complete(ptr noundef %0, ptr noundef %1, i32 noundef %2) local_unnamed_addr #3 {
  %4 = getelementptr inbounds nuw i8, ptr %0, i64 32
  %5 = load i32, ptr %4, align 8, !tbaa !15
  %6 = and i32 %5, 1
  %.not = icmp eq i32 %6, 0
  br i1 %.not, label %retry_transfer_wrapper.exit, label %7

7:                                                ; preds = %3
  %8 = getelementptr inbounds nuw i8, ptr %0, i64 48
  %9 = getelementptr inbounds nuw i8, ptr %0, i64 56
  %10 = getelementptr inbounds nuw i8, ptr %0, i64 8
  %11 = icmp sgt i32 %2, 0
  br i1 %11, label %.outer.split.lr.ph.i, label %retry_transfer_wrapper.exit

.outer.split.lr.ph.i:                             ; preds = %7
  %12 = getelementptr inbounds nuw i8, ptr %0, i64 64
  br label %.outer.split.i

.outer.split.i:                                   ; preds = %.outer.i, %.outer.split.lr.ph.i
  %13 = phi i32 [ %48, %.outer.i ], [ %2, %.outer.split.lr.ph.i ]
  %14 = phi ptr [ %47, %.outer.i ], [ %1, %.outer.split.lr.ph.i ]
  %.0.ph61.i = phi i64 [ %.3.i, %.outer.i ], [ 0, %.outer.split.lr.ph.i ]
  %.037.ph60.i = phi i32 [ %.239.i, %.outer.i ], [ 5, %.outer.split.lr.ph.i ]
  %.040.ph59.i = phi i32 [ %44, %.outer.i ], [ 0, %.outer.split.lr.ph.i ]
  br label %15

15:                                               ; preds = %ff_check_interrupt.exit.thread.i, %.outer.split.i
  %16 = load ptr, ptr %8, align 8, !tbaa !19
  %.not6.i.i = icmp eq ptr %16, null
  br i1 %.not6.i.i, label %ff_check_interrupt.exit.thread.i, label %ff_check_interrupt.exit.i

ff_check_interrupt.exit.i:                        ; preds = %15
  %17 = load ptr, ptr %9, align 8, !tbaa !20
  %18 = tail call i32 %16(ptr noundef %17) #12
  %.not.i = icmp eq i32 %18, 0
  br i1 %.not.i, label %ff_check_interrupt.exit.thread.i, label %retry_transfer_wrapper.exit

ff_check_interrupt.exit.thread.i:                 ; preds = %ff_check_interrupt.exit.i, %15
  %19 = load ptr, ptr %10, align 8, !tbaa !21
  %20 = getelementptr inbounds nuw i8, ptr %19, i64 40
  %21 = load ptr, ptr %20, align 8, !tbaa !22
  %22 = tail call i32 %21(ptr noundef nonnull %0, ptr noundef %14, i32 noundef %13) #12
  %23 = icmp eq i32 %22, -4
  br i1 %23, label %15, label %.split.i, !llvm.loop !24

.split.i:                                         ; preds = %ff_check_interrupt.exit.thread.i
  %24 = load i32, ptr %4, align 8, !tbaa !15
  %25 = and i32 %24, 8
  %.not45.i = icmp eq i32 %25, 0
  br i1 %.not45.i, label %26, label %retry_transfer_wrapper.exit

26:                                               ; preds = %.split.i
  switch i32 %22, label %41 [
    i32 -11, label %27
    i32 -541478725, label %.split63.us.i
  ]

27:                                               ; preds = %26
  %.not46.i = icmp eq i32 %.037.ph60.i, 0
  br i1 %.not46.i, label %30, label %28

28:                                               ; preds = %27
  %29 = add nsw i32 %.037.ph60.i, -1
  br label %.outer.i

30:                                               ; preds = %27
  %31 = load i64, ptr %12, align 8, !tbaa !26
  %.not47.i = icmp eq i64 %31, 0
  br i1 %.not47.i, label %38, label %32

32:                                               ; preds = %30
  %.not48.i = icmp eq i64 %.0.ph61.i, 0
  %33 = tail call i64 @av_gettime_relative() #12
  br i1 %.not48.i, label %38, label %34

34:                                               ; preds = %32
  %35 = load i64, ptr %12, align 8, !tbaa !26
  %36 = add nsw i64 %35, %.0.ph61.i
  %37 = icmp sgt i64 %33, %36
  br i1 %37, label %retry_transfer_wrapper.exit, label %38

38:                                               ; preds = %34, %32, %30
  %.1.i = phi i64 [ %.0.ph61.i, %34 ], [ %.0.ph61.i, %30 ], [ %33, %32 ]
  %39 = tail call i32 @av_usleep(i32 noundef 1000) #12
  br label %.outer.i

.split63.us.i:                                    ; preds = %26
  %.not5 = icmp eq i32 %.040.ph59.i, 0
  %40 = select i1 %.not5, i32 -541478725, i32 %.040.ph59.i
  br label %retry_transfer_wrapper.exit

41:                                               ; preds = %26
  %42 = icmp slt i32 %22, 0
  br i1 %42, label %retry_transfer_wrapper.exit, label %.outer.i

.outer.i:                                         ; preds = %41, %38, %28
  %.041.i = phi i32 [ 0, %28 ], [ 0, %38 ], [ %22, %41 ]
  %.138.i = phi i32 [ %29, %28 ], [ 0, %38 ], [ %.037.ph60.i, %41 ]
  %.2.i = phi i64 [ %.0.ph61.i, %28 ], [ %.1.i, %38 ], [ %.0.ph61.i, %41 ]
  %.not49.i = icmp eq i32 %.041.i, 0
  %43 = tail call i32 @llvm.smax.i32(i32 %.138.i, i32 2)
  %.239.i = select i1 %.not49.i, i32 %.138.i, i32 %43
  %.3.i = select i1 %.not49.i, i64 %.2.i, i64 0
  %44 = add nuw nsw i32 %.041.i, %.040.ph59.i
  %45 = icmp slt i32 %44, %2
  %46 = zext nneg i32 %44 to i64
  %47 = getelementptr inbounds nuw i8, ptr %1, i64 %46
  %48 = sub nsw i32 %2, %44
  br i1 %45, label %.outer.split.i, label %retry_transfer_wrapper.exit, !llvm.loop !24

retry_transfer_wrapper.exit:                      ; preds = %.outer.i, %41, %34, %.split.i, %ff_check_interrupt.exit.i, %.split63.us.i, %7, %3
  %.0 = phi i32 [ -5, %3 ], [ %40, %.split63.us.i ], [ 0, %7 ], [ -1414092869, %ff_check_interrupt.exit.i ], [ %22, %41 ], [ -5, %34 ], [ %22, %.split.i ], [ %44, %.outer.i ]
  ret i32 %.0
}